; Function Attrs: nounwind sspstrong uwtable
define dso_local ptr @qdev_get_gpio_in(ptr noundef %dev, i32 noundef %n) local_unnamed_addr #0 {
entry:
  %gpios.i.i = getelementptr inbounds nuw i8, ptr %dev, i64 96
  %ngl.016.i.i = load ptr, ptr %gpios.i.i, align 8
  %tobool.not17.i.i = icmp eq ptr %ngl.016.i.i, null
  br i1 %tobool.not17.i.i, label %for.end.i.i, label %for.body.i.i

for.body.i.i:                                     ; preds = %entry, %for.inc.i.i
  %ngl.018.i.i = phi ptr [ %ngl.0.i.i, %for.inc.i.i ], [ %ngl.016.i.i, %entry ]
  %0 = load ptr, ptr %ngl.018.i.i, align 8
  %call.i.i = tail call i32 @g_strcmp0(ptr noundef null, ptr noundef %0) #5
  %cmp.i.i = icmp eq i32 %call.i.i, 0
  br i1 %cmp.i.i, label %qdev_get_named_gpio_list.exit.i, label %for.inc.i.i

for.inc.i.i:                                      ; preds = %for.body.i.i
  %node.i.i = getelementptr inbounds nuw i8, ptr %ngl.018.i.i, i64 24
  %ngl.0.i.i = load ptr, ptr %node.i.i, align 8
  %tobool.not.i.i = icmp eq ptr %ngl.0.i.i, null
  br i1 %tobool.not.i.i, label %for.end.i.i, label %for.body.i.i, !llvm.loop !5

for.end.i.i:                                      ; preds = %for.inc.i.i, %entry
  %call2.i.i = tail call noalias dereferenceable_or_null(40) ptr @g_malloc0(i64 noundef 40) #6
  %call3.i.i = tail call noalias ptr @g_strdup(ptr noundef null) #5
  store ptr %call3.i.i, ptr %call2.i.i, align 8
  %1 = load ptr, ptr %gpios.i.i, align 8
  %node7.i.i = getelementptr inbounds nuw i8, ptr %call2.i.i, i64 24
  store ptr %1, ptr %node7.i.i, align 8
  %cmp9.not.i.i = icmp eq ptr %1, null
  br i1 %cmp9.not.i.i, label %if.end16.i.i, label %if.then10.i.i

if.then10.i.i:                                    ; preds = %for.end.i.i
  %le_prev.i.i = getelementptr inbounds nuw i8, ptr %1, i64 32
  store ptr %node7.i.i, ptr %le_prev.i.i, align 8
  br label %if.end16.i.i

if.end16.i.i:                                     ; preds = %if.then10.i.i, %for.end.i.i
  store ptr %call2.i.i, ptr %gpios.i.i, align 8
  %le_prev22.i.i = getelementptr inbounds nuw i8, ptr %call2.i.i, i64 32
  store ptr %gpios.i.i, ptr %le_prev22.i.i, align 8
  br label %qdev_get_named_gpio_list.exit.i

qdev_get_named_gpio_list.exit.i:                  ; preds = %for.body.i.i, %if.end16.i.i
  %retval.0.i.i = phi ptr [ %call2.i.i, %if.end16.i.i ], [ %ngl.018.i.i, %for.body.i.i ]
  %cmp.i = icmp sgt i32 %n, -1
  br i1 %cmp.i, label %land.lhs.true.i, label %if.else.i

land.lhs.true.i:                                  ; preds = %qdev_get_named_gpio_list.exit.i
  %num_in.i = getelementptr inbounds nuw i8, ptr %retval.0.i.i, i64 16
  %2 = load i32, ptr %num_in.i, align 8
  %cmp1.i = icmp slt i32 %n, %2
  br i1 %cmp1.i, label %qdev_get_gpio_in_named.exit, label %if.else.i

if.else.i:                                        ; preds = %land.lhs.true.i, %qdev_get_named_gpio_list.exit.i
  tail call void @__assert_fail(ptr noundef nonnull @.str.7, ptr noundef nonnull @.str.1, i32 noundef 108, ptr noundef nonnull @__PRETTY_FUNCTION__.qdev_get_gpio_in_named) #7
  unreachable

qdev_get_gpio_in_named.exit:                      ; preds = %land.lhs.true.i
  %in.i = getelementptr inbounds nuw i8, ptr %retval.0.i.i, i64 8
  %3 = load ptr, ptr %in.i, align 8
  %idxprom.i = zext nneg i32 %n to i64
  %arrayidx.i = getelementptr ptr, ptr %3, i64 %idxprom.i
  %4 = load ptr, ptr %arrayidx.i, align 8
  ret ptr %4
}